target datalayout = "e-m:e-p270:32:32-p271:32:32-p272:64:64-i64:64-i128:128-f80:128-n8:16:32:64-S128"
target triple = "x86_64-pc-linux-gnu"

; Function Attrs: nounwind uwtable
define dso_local i32 @for_each_loose_file_in_objdir_buf(ptr noundef %0, ptr noundef %1, ptr noundef %2, ptr noundef %3, ptr noundef %4) #0 {
  %6 = alloca ptr, align 8
  %7 = alloca ptr, align 8
  %8 = alloca ptr, align 8
  %9 = alloca ptr, align 8
  %10 = alloca ptr, align 8
  %11 = alloca i32, align 4
  %12 = alloca i32, align 4
  store ptr %0, ptr %6, align 8, !tbaa !62
  store ptr %1, ptr %7, align 8, !tbaa !9
  store ptr %2, ptr %8, align 8, !tbaa !9
  store ptr %3, ptr %9, align 8, !tbaa !9
  store ptr %4, ptr %10, align 8, !tbaa !9
  call void @llvm.lifetime.start.p0(i64 4, ptr %11) #14
  store i32 0, ptr %11, align 4, !tbaa !43
  call void @llvm.lifetime.start.p0(i64 4, ptr %12) #14
  store i32 0, ptr %12, align 4, !tbaa !43
  br label %13

13:                                               ; preds = %28, %5
  %14 = load i32, ptr %12, align 4, !tbaa !43
  %15 = icmp slt i32 %14, 256
  br i1 %15, label %16, label %31

16:                                               ; preds = %13
  %17 = load i32, ptr %12, align 4, !tbaa !43
  %18 = load ptr, ptr %6, align 8, !tbaa !62
  %19 = load ptr, ptr %7, align 8, !tbaa !9
  %20 = load ptr, ptr %8, align 8, !tbaa !9
  %21 = load ptr, ptr %9, align 8, !tbaa !9
  %22 = load ptr, ptr %10, align 8, !tbaa !9
  %23 = call i32 @for_each_file_in_obj_subdir(i32 noundef %17, ptr noundef %18, ptr noundef %19, ptr noundef %20, ptr noundef %21, ptr noundef %22)
  store i32 %23, ptr %11, align 4, !tbaa !43
  %24 = load i32, ptr %11, align 4, !tbaa !43
  %25 = icmp ne i32 %24, 0
  br i1 %25, label %26, label %27

26:                                               ; preds = %16
  br label %31

27:                                               ; preds = %16
  br label %28

28:                                               ; preds = %27
  %29 = load i32, ptr %12, align 4, !tbaa !43
  %30 = add nsw i32 %29, 1
  store i32 %30, ptr %12, align 4, !tbaa !43
  br label %13, !llvm.loop !192

31:                                               ; preds = %26, %13
  %32 = load i32, ptr %11, align 4, !tbaa !43
  call void @llvm.lifetime.end.p0(i64 4, ptr %12) #14
  call void @llvm.lifetime.end.p0(i64 4, ptr %11) #14
  ret i32 %32
}