; Function Attrs: nounwind uwtable
define dso_local i32 @for_each_loose_file_in_objdir_buf(ptr noundef %0, ptr noundef %1, ptr noundef %2, ptr noundef %3, ptr noundef %4) local_unnamed_addr #1 {
  br label %6

6:                                                ; preds = %6, %5
  %.012 = phi i32 [ 0, %5 ], [ %8, %6 ]
  %7 = tail call i32 @for_each_file_in_obj_subdir(i32 noundef %.012, ptr noundef %0, ptr noundef %1, ptr noundef %2, ptr noundef %3, ptr noundef %4)
  %.not = icmp ne i32 %7, 0
  %8 = add nuw nsw i32 %.012, 1
  %exitcond.not = icmp eq i32 %8, 256
  %or.cond = select i1 %.not, i1 true, i1 %exitcond.not
  br i1 %or.cond, label %9, label %6, !llvm.loop !166

9:                                                ; preds = %6
  ret i32 %7
}